target datalayout = "e-m:e-p270:32:32-p271:32:32-p272:64:64-i64:64-i128:128-f80:128-n8:16:32:64-S128"
target triple = "x86_64-pc-linux-gnu"

%struct.H5FD_core_t = type { %struct.H5FD_t, ptr, ptr, i64, i64, i64, i8, i8, i64, i8, i32, i64, i64, i8, %struct.H5FD_file_image_callbacks_t, ptr }
%struct.H5FD_t = type { i64, ptr, i64, i32, i64, i64, i64, i64, i64, i8 }
%struct.H5FD_file_image_callbacks_t = type { ptr, ptr, ptr, ptr, ptr, ptr, ptr }

@H5FD_init_g = external global i8, align 1
@H5_libterm_g = external global i8, align 1

; Function Attrs: nounwind uwtable
define internal i32 @H5FD__core_cmp(ptr noundef %0, ptr noundef %1) #0 {
  %3 = alloca ptr, align 8
  %4 = alloca ptr, align 8
  %5 = alloca ptr, align 8
  %6 = alloca ptr, align 8
  %7 = alloca i32, align 4
  store ptr %0, ptr %3, align 8, !tbaa !29
  store ptr %1, ptr %4, align 8, !tbaa !29
  call void @llvm.lifetime.start.p0(i64 8, ptr %5) #12
  %8 = load ptr, ptr %3, align 8, !tbaa !29
  store ptr %8, ptr %5, align 8, !tbaa !31
  call void @llvm.lifetime.start.p0(i64 8, ptr %6) #12
  %9 = load ptr, ptr %4, align 8, !tbaa !29
  store ptr %9, ptr %6, align 8, !tbaa !31
  call void @llvm.lifetime.start.p0(i64 4, ptr %7) #12
  store i32 0, ptr %7, align 4, !tbaa !3
  %10 = load i8, ptr @H5FD_init_g, align 1, !tbaa !7, !range !9, !noundef !10
  %11 = trunc i8 %10 to i1
  br i1 %11, label %16, label %12

12:                                               ; preds = %2
  %13 = load i8, ptr @H5_libterm_g, align 1, !tbaa !7, !range !9, !noundef !10
  %14 = trunc i8 %13 to i1
  %15 = xor i1 %14, true
  br label %16

16:                                               ; preds = %12, %2
  %17 = phi i1 [ true, %2 ], [ %15, %12 ]
  %18 = xor i1 %17, true
  %19 = xor i1 %18, true
  %20 = zext i1 %19 to i32
  %21 = sext i32 %20 to i64
  %22 = call i64 @llvm.expect.i64(i64 %21, i64 1)
  %23 = icmp ne i64 %22, 0
  br i1 %23, label %24, label %141

24:                                               ; preds = %16
  %25 = load ptr, ptr %5, align 8, !tbaa !31
  %26 = getelementptr inbounds nuw %struct.H5FD_core_t, ptr %25, i32 0, i32 10
  %27 = load i32, ptr %26, align 4, !tbaa !40
  %28 = icmp sge i32 %27, 0
  br i1 %28, label %29, label %83

29:                                               ; preds = %24
  %30 = load ptr, ptr %6, align 8, !tbaa !31
  %31 = getelementptr inbounds nuw %struct.H5FD_core_t, ptr %30, i32 0, i32 10
  %32 = load i32, ptr %31, align 4, !tbaa !40
  %33 = icmp sge i32 %32, 0
  br i1 %33, label %34, label %83

34:                                               ; preds = %29
  %35 = load ptr, ptr %5, align 8, !tbaa !31
  %36 = getelementptr inbounds nuw %struct.H5FD_core_t, ptr %35, i32 0, i32 11
  %37 = load i64, ptr %36, align 8, !tbaa !53
  %38 = load ptr, ptr %6, align 8, !tbaa !31
  %39 = getelementptr inbounds nuw %struct.H5FD_core_t, ptr %38, i32 0, i32 11
  %40 = load i64, ptr %39, align 8, !tbaa !53
  %41 = icmp ult i64 %37, %40
  br i1 %41, label %42, label %46

42:                                               ; preds = %34
  br label %43

43:                                               ; preds = %42
  store i32 -1, ptr %7, align 4, !tbaa !3
  br label %140

44:                                               ; No predecessors!
  br label %45

45:                                               ; preds = %44
  br label %46

46:                                               ; preds = %45, %34
  %47 = load ptr, ptr %5, align 8, !tbaa !31
  %48 = getelementptr inbounds nuw %struct.H5FD_core_t, ptr %47, i32 0, i32 11
  %49 = load i64, ptr %48, align 8, !tbaa !53
  %50 = load ptr, ptr %6, align 8, !tbaa !31
  %51 = getelementptr inbounds nuw %struct.H5FD_core_t, ptr %50, i32 0, i32 11
  %52 = load i64, ptr %51, align 8, !tbaa !53
  %53 = icmp ugt i64 %49, %52
  br i1 %53, label %54, label %58

54:                                               ; preds = %46
  br label %55

55:                                               ; preds = %54
  store i32 1, ptr %7, align 4, !tbaa !3
  br label %140

56:                                               ; No predecessors!
  br label %57

57:                                               ; preds = %56
  br label %58

58:                                               ; preds = %57, %46
  %59 = load ptr, ptr %5, align 8, !tbaa !31
  %60 = getelementptr inbounds nuw %struct.H5FD_core_t, ptr %59, i32 0, i32 12
  %61 = load i64, ptr %60, align 8, !tbaa !55
  %62 = load ptr, ptr %6, align 8, !tbaa !31
  %63 = getelementptr inbounds nuw %struct.H5FD_core_t, ptr %62, i32 0, i32 12
  %64 = load i64, ptr %63, align 8, !tbaa !55
  %65 = icmp ult i64 %61, %64
  br i1 %65, label %66, label %70

66:                                               ; preds = %58
  br label %67

67:                                               ; preds = %66
  store i32 -1, ptr %7, align 4, !tbaa !3
  br label %140

68:                                               ; No predecessors!
  br label %69

69:                                               ; preds = %68
  br label %70

70:                                               ; preds = %69, %58
  %71 = load ptr, ptr %5, align 8, !tbaa !31
  %72 = getelementptr inbounds nuw %struct.H5FD_core_t, ptr %71, i32 0, i32 12
  %73 = load i64, ptr %72, align 8, !tbaa !55
  %74 = load ptr, ptr %6, align 8, !tbaa !31
  %75 = getelementptr inbounds nuw %struct.H5FD_core_t, ptr %74, i32 0, i32 12
  %76 = load i64, ptr %75, align 8, !tbaa !55
  %77 = icmp ugt i64 %73, %76
  br i1 %77, label %78, label %82

78:                                               ; preds = %70
  br label %79

79:                                               ; preds = %78
  store i32 1, ptr %7, align 4, !tbaa !3
  br label %140

80:                                               ; No predecessors!
  br label %81

81:                                               ; preds = %80
  br label %82

82:                                               ; preds = %81, %70
  br label %139

83:                                               ; preds = %29, %24
  %84 = load ptr, ptr %5, align 8, !tbaa !31
  %85 = getelementptr inbounds nuw %struct.H5FD_core_t, ptr %84, i32 0, i32 1
  %86 = load ptr, ptr %85, align 8, !tbaa !46
  %87 = icmp eq ptr null, %86
  br i1 %87, label %88, label %113

88:                                               ; preds = %83
  %89 = load ptr, ptr %6, align 8, !tbaa !31
  %90 = getelementptr inbounds nuw %struct.H5FD_core_t, ptr %89, i32 0, i32 1
  %91 = load ptr, ptr %90, align 8, !tbaa !46
  %92 = icmp eq ptr null, %91
  br i1 %92, label %93, label %113

93:                                               ; preds = %88
  %94 = load ptr, ptr %5, align 8, !tbaa !31
  %95 = load ptr, ptr %6, align 8, !tbaa !31
  %96 = icmp ult ptr %94, %95
  br i1 %96, label %97, label %101

97:                                               ; preds = %93
  br label %98

98:                                               ; preds = %97
  store i32 -1, ptr %7, align 4, !tbaa !3
  br label %140

99:                                               ; No predecessors!
  br label %100

100:                                              ; preds = %99
  br label %101

101:                                              ; preds = %100, %93
  %102 = load ptr, ptr %5, align 8, !tbaa !31
  %103 = load ptr, ptr %6, align 8, !tbaa !31
  %104 = icmp ugt ptr %102, %103
  br i1 %104, label %105, label %109

105:                                              ; preds = %101
  br label %106

106:                                              ; preds = %105
  store i32 1, ptr %7, align 4, !tbaa !3
  br label %140

107:                                              ; No predecessors!
  br label %108

108:                                              ; preds = %107
  br label %109

109:                                              ; preds = %108, %101
  br label %110

110:                                              ; preds = %109
  store i32 0, ptr %7, align 4, !tbaa !3
  br label %140

111:                                              ; No predecessors!
  br label %112

112:                                              ; preds = %111
  br label %113

113:                                              ; preds = %112, %88, %83
  %114 = load ptr, ptr %5, align 8, !tbaa !31
  %115 = getelementptr inbounds nuw %struct.H5FD_core_t, ptr %114, i32 0, i32 1
  %116 = load ptr, ptr %115, align 8, !tbaa !46
  %117 = icmp eq ptr null, %116
  br i1 %117, label %118, label %122

118:                                              ; preds = %113
  br label %119

119:                                              ; preds = %118
  store i32 -1, ptr %7, align 4, !tbaa !3
  br label %140

120:                                              ; No predecessors!
  br label %121

121:                                              ; preds = %120
  br label %122

122:                                              ; preds = %121, %113
  %123 = load ptr, ptr %6, align 8, !tbaa !31
  %124 = getelementptr inbounds nuw %struct.H5FD_core_t, ptr %123, i32 0, i32 1
  %125 = load ptr, ptr %124, align 8, !tbaa !46
  %126 = icmp eq ptr null, %125
  br i1 %126, label %127, label %131

127:                                              ; preds = %122
  br label %128

128:                                              ; preds = %127
  store i32 1, ptr %7, align 4, !tbaa !3
  br label %140

129:                                              ; No predecessors!
  br label %130

130:                                              ; preds = %129
  br label %131

131:                                              ; preds = %130, %122
  %132 = load ptr, ptr %5, align 8, !tbaa !31
  %133 = getelementptr inbounds nuw %struct.H5FD_core_t, ptr %132, i32 0, i32 1
  %134 = load ptr, ptr %133, align 8, !tbaa !46
  %135 = load ptr, ptr %6, align 8, !tbaa !31
  %136 = getelementptr inbounds nuw %struct.H5FD_core_t, ptr %135, i32 0, i32 1
  %137 = load ptr, ptr %136, align 8, !tbaa !46
  %138 = call i32 @strcmp(ptr noundef %134, ptr noundef %137) #13
  store i32 %138, ptr %7, align 4, !tbaa !3
  br label %139

139:                                              ; preds = %131, %82
  br label %140

140:                                              ; preds = %139, %128, %119, %110, %106, %98, %79, %67, %55, %43
  br label %141

141:                                              ; preds = %140, %16
  %142 = load i32, ptr %7, align 4, !tbaa !3
  call void @llvm.lifetime.end.p0(i64 4, ptr %7) #12
  call void @llvm.lifetime.end.p0(i64 8, ptr %6) #12
  call void @llvm.lifetime.end.p0(i64 8, ptr %5) #12
  ret i32 %142
}