; Function Attrs: mustprogress nofree nounwind willreturn memory(read, inaccessiblemem: none) uwtable
define internal i32 @H5FD__core_cmp(ptr noundef readonly captures(address) %0, ptr noundef readonly captures(address) %1) #5 {
  %3 = load i8, ptr @H5FD_init_g, align 1, !tbaa !3, !range !7, !noundef !8
  %4 = trunc nuw i8 %3 to i1
  %5 = load i8, ptr @H5_libterm_g, align 1, !range !7
  %6 = trunc nuw i8 %5 to i1
  %7 = xor i1 %6, true
  %8 = select i1 %4, i1 true, i1 %7
  br i1 %8, label %9, label %.thread, !prof !9

9:                                                ; preds = %2
  %10 = getelementptr inbounds nuw i8, ptr %0, i64 140
  %11 = load i32, ptr %10, align 4, !tbaa !30
  %12 = icmp sgt i32 %11, -1
  br i1 %12, label %13, label %33

13:                                               ; preds = %9
  %14 = getelementptr inbounds nuw i8, ptr %1, i64 140
  %15 = load i32, ptr %14, align 4, !tbaa !30
  %16 = icmp sgt i32 %15, -1
  br i1 %16, label %17, label %33

17:                                               ; preds = %13
  %18 = getelementptr inbounds nuw i8, ptr %0, i64 144
  %19 = load i64, ptr %18, align 8, !tbaa !45
  %20 = getelementptr inbounds nuw i8, ptr %1, i64 144
  %21 = load i64, ptr %20, align 8, !tbaa !45
  %22 = icmp ult i64 %19, %21
  br i1 %22, label %.thread, label %23

23:                                               ; preds = %17
  %24 = icmp ugt i64 %19, %21
  br i1 %24, label %.thread, label %25

25:                                               ; preds = %23
  %26 = getelementptr inbounds nuw i8, ptr %0, i64 152
  %27 = load i64, ptr %26, align 8, !tbaa !47
  %28 = getelementptr inbounds nuw i8, ptr %1, i64 152
  %29 = load i64, ptr %28, align 8, !tbaa !47
  %30 = icmp ult i64 %27, %29
  br i1 %30, label %.thread, label %31

31:                                               ; preds = %25
  %32 = icmp ugt i64 %27, %29
  %spec.select = zext i1 %32 to i32
  br label %.thread

33:                                               ; preds = %13, %9
  %34 = getelementptr inbounds nuw i8, ptr %0, i64 80
  %35 = load ptr, ptr %34, align 8, !tbaa !37
  %36 = icmp eq ptr %35, null
  %37 = getelementptr inbounds nuw i8, ptr %1, i64 80
  %38 = load ptr, ptr %37, align 8, !tbaa !37
  br i1 %36, label %39, label %44

39:                                               ; preds = %33
  %40 = icmp ne ptr %38, null
  %41 = icmp ult ptr %0, %1
  %or.cond = or i1 %41, %40
  br i1 %or.cond, label %.thread, label %42

42:                                               ; preds = %39
  %43 = icmp ugt ptr %0, %1
  %. = zext i1 %43 to i32
  br label %.thread

44:                                               ; preds = %33
  %45 = icmp eq ptr %38, null
  br i1 %45, label %.thread, label %46

46:                                               ; preds = %44
  %47 = tail call i32 @strcmp(ptr noundef nonnull dereferenceable(1) %35, ptr noundef nonnull dereferenceable(1) %38) #19
  br label %.thread

.thread:                                          ; preds = %39, %31, %44, %42, %25, %23, %17, %46, %2
  %.0 = phi i32 [ %47, %46 ], [ 0, %2 ], [ -1, %17 ], [ 1, %23 ], [ -1, %25 ], [ %spec.select, %31 ], [ %., %42 ], [ 1, %44 ], [ -1, %39 ]
  ret i32 %.0
}